target datalayout = "e-m:e-p270:32:32-p271:32:32-p272:64:64-i64:64-i128:128-f80:128-n8:16:32:64-S128"
target triple = "x86_64-pc-linux-gnu"

@.str.11 = private unnamed_addr constant [19 x i8] c"Lic Pro Controller\00", align 1
@.str.12 = private unnamed_addr constant [26 x i8] c"Nintendo Wireless Gamepad\00", align 1
@.str.13 = private unnamed_addr constant [17 x i8] c"Wireless Gamepad\00", align 1
@.str.14 = private unnamed_addr constant [15 x i8] c"NES Controller\00", align 1
@.str.15 = private unnamed_addr constant [4 x i8] c"(L)\00", align 1

; Function Attrs: nounwind uwtable
define hidden i32 @SDL_GetGamepadTypeFromVIDPID(i16 noundef zeroext %0, i16 noundef zeroext %1, ptr noundef %2, i1 noundef zeroext %3) #0 {
  %5 = alloca i16, align 2
  %6 = alloca i16, align 2
  %7 = alloca ptr, align 8
  %8 = alloca i8, align 1
  %9 = alloca i32, align 4
  store i16 %0, ptr %5, align 2
  store i16 %1, ptr %6, align 2
  store ptr %2, ptr %7, align 8
  %10 = zext i1 %3 to i8
  store i8 %10, ptr %8, align 1
  call void @llvm.lifetime.start.p0(i64 4, ptr %9) #7
  store i32 1, ptr %9, align 4
  %11 = load i16, ptr %5, align 2
  %12 = zext i16 %11 to i32
  %13 = icmp eq i32 %12, 0
  br i1 %13, label %14, label %35

14:                                               ; preds = %4
  %15 = load i16, ptr %6, align 2
  %16 = zext i16 %15 to i32
  %17 = icmp eq i32 %16, 0
  br i1 %17, label %18, label %35

18:                                               ; preds = %14
  %19 = load ptr, ptr %7, align 8
  %20 = icmp ne ptr %19, null
  br i1 %20, label %21, label %34

21:                                               ; preds = %18
  %22 = load ptr, ptr %7, align 8
  %23 = call i32 @SDL_strcmp_REAL(ptr noundef %22, ptr noundef @.str.11)
  %24 = icmp eq i32 %23, 0
  br i1 %24, label %33, label %25

25:                                               ; preds = %21
  %26 = load ptr, ptr %7, align 8
  %27 = call i32 @SDL_strcmp_REAL(ptr noundef %26, ptr noundef @.str.12)
  %28 = icmp eq i32 %27, 0
  br i1 %28, label %33, label %29

29:                                               ; preds = %25
  %30 = load ptr, ptr %7, align 8
  %31 = call i32 @SDL_strcmp_REAL(ptr noundef %30, ptr noundef @.str.13)
  %32 = icmp eq i32 %31, 0
  br i1 %32, label %33, label %34

33:                                               ; preds = %29, %25, %21
  store i32 7, ptr %9, align 4
  br label %34

34:                                               ; preds = %33, %29, %18
  br label %138

35:                                               ; preds = %14, %4
  %36 = load i16, ptr %5, align 2
  %37 = zext i16 %36 to i32
  %38 = icmp eq i32 %37, 1
  br i1 %38, label %39, label %44

39:                                               ; preds = %35
  %40 = load i16, ptr %6, align 2
  %41 = zext i16 %40 to i32
  %42 = icmp eq i32 %41, 1
  br i1 %42, label %43, label %44

43:                                               ; preds = %39
  store i32 1, ptr %9, align 4
  br label %137

44:                                               ; preds = %39, %35
  %45 = load i16, ptr %5, align 2
  %46 = zext i16 %45 to i32
  %47 = icmp eq i32 %46, 1406
  br i1 %47, label %48, label %53

48:                                               ; preds = %44
  %49 = load i16, ptr %6, align 2
  %50 = zext i16 %49 to i32
  %51 = icmp eq i32 %50, 8198
  br i1 %51, label %52, label %53

52:                                               ; preds = %48
  store i32 8, ptr %9, align 4
  br label %136

53:                                               ; preds = %48, %44
  %54 = load i16, ptr %5, align 2
  %55 = zext i16 %54 to i32
  %56 = icmp eq i32 %55, 1406
  br i1 %56, label %57, label %71

57:                                               ; preds = %53
  %58 = load i16, ptr %6, align 2
  %59 = zext i16 %58 to i32
  %60 = icmp eq i32 %59, 8199
  br i1 %60, label %61, label %71

61:                                               ; preds = %57
  %62 = load ptr, ptr %7, align 8
  %63 = icmp ne ptr %62, null
  br i1 %63, label %64, label %69

64:                                               ; preds = %61
  %65 = load ptr, ptr %7, align 8
  %66 = call ptr @SDL_strstr_REAL(ptr noundef %65, ptr noundef @.str.14)
  %67 = icmp ne ptr %66, null
  br i1 %67, label %68, label %69

68:                                               ; preds = %64
  store i32 1, ptr %9, align 4
  br label %70

69:                                               ; preds = %64, %61
  store i32 9, ptr %9, align 4
  br label %70

70:                                               ; preds = %69, %68
  br label %135

71:                                               ; preds = %57, %53
  %72 = load i16, ptr %5, align 2
  %73 = zext i16 %72 to i32
  %74 = icmp eq i32 %73, 1406
  br i1 %74, label %75, label %89

75:                                               ; preds = %71
  %76 = load i16, ptr %6, align 2
  %77 = zext i16 %76 to i32
  %78 = icmp eq i32 %77, 8206
  br i1 %78, label %79, label %89

79:                                               ; preds = %75
  %80 = load ptr, ptr %7, align 8
  %81 = icmp ne ptr %80, null
  br i1 %81, label %82, label %87

82:                                               ; preds = %79
  %83 = load ptr, ptr %7, align 8
  %84 = call ptr @SDL_strstr_REAL(ptr noundef %83, ptr noundef @.str.15)
  %85 = icmp ne ptr %84, null
  br i1 %85, label %86, label %87

86:                                               ; preds = %82
  store i32 8, ptr %9, align 4
  br label %88

87:                                               ; preds = %82, %79
  store i32 9, ptr %9, align 4
  br label %88

88:                                               ; preds = %87, %86
  br label %134

89:                                               ; preds = %75, %71
  %90 = load i16, ptr %5, align 2
  %91 = zext i16 %90 to i32
  %92 = icmp eq i32 %91, 1406
  br i1 %92, label %93, label %98

93:                                               ; preds = %89
  %94 = load i16, ptr %6, align 2
  %95 = zext i16 %94 to i32
  %96 = icmp eq i32 %95, 8200
  br i1 %96, label %97, label %98

97:                                               ; preds = %93
  store i32 10, ptr %9, align 4
  br label %133

98:                                               ; preds = %93, %89
  %99 = load i8, ptr %8, align 1, !range !3, !noundef !4
  %100 = trunc i8 %99 to i1
  br i1 %100, label %101, label %106

101:                                              ; preds = %98
  %102 = load i16, ptr %5, align 2
  %103 = load i16, ptr %6, align 2
  %104 = call zeroext i1 @SDL_IsJoystickGameCube(i16 noundef zeroext %102, i16 noundef zeroext %103)
  br i1 %104, label %105, label %106

105:                                              ; preds = %101
  store i32 11, ptr %9, align 4
  br label %132

106:                                              ; preds = %101, %98
  %107 = load i16, ptr %5, align 2
  %108 = zext i16 %107 to i32
  %109 = load i16, ptr %6, align 2
  %110 = zext i16 %109 to i32
  %111 = call i32 @GuessControllerType(i32 noundef %108, i32 noundef %110)
  switch i32 %111, label %130 [
    i32 31, label %112
    i32 32, label %113
    i32 33, label %114
    i32 34, label %115
    i32 45, label %116
    i32 46, label %117
    i32 38, label %123
    i32 42, label %123
    i32 44, label %124
  ]

112:                                              ; preds = %106
  store i32 2, ptr %9, align 4
  br label %131

113:                                              ; preds = %106
  store i32 3, ptr %9, align 4
  br label %131

114:                                              ; preds = %106
  store i32 4, ptr %9, align 4
  br label %131

115:                                              ; preds = %106
  store i32 5, ptr %9, align 4
  br label %131

116:                                              ; preds = %106
  store i32 6, ptr %9, align 4
  br label %131

117:                                              ; preds = %106
  %118 = load i8, ptr %8, align 1, !range !3, !noundef !4
  %119 = trunc i8 %118 to i1
  br i1 %119, label %120, label %121

120:                                              ; preds = %117
  store i32 5, ptr %9, align 4
  br label %122

121:                                              ; preds = %117
  store i32 1, ptr %9, align 4
  br label %122

122:                                              ; preds = %121, %120
  br label %131

123:                                              ; preds = %106, %106
  store i32 7, ptr %9, align 4
  br label %131

124:                                              ; preds = %106
  %125 = load i8, ptr %8, align 1, !range !3, !noundef !4
  %126 = trunc i8 %125 to i1
  br i1 %126, label %127, label %128

127:                                              ; preds = %124
  store i32 7, ptr %9, align 4
  br label %129

128:                                              ; preds = %124
  store i32 1, ptr %9, align 4
  br label %129

129:                                              ; preds = %128, %127
  br label %131

130:                                              ; preds = %106
  br label %131

131:                                              ; preds = %130, %129, %123, %122, %116, %115, %114, %113, %112
  br label %132

132:                                              ; preds = %131, %105
  br label %133

133:                                              ; preds = %132, %97
  br label %134

134:                                              ; preds = %133, %88
  br label %135

135:                                              ; preds = %134, %70
  br label %136

136:                                              ; preds = %135, %52
  br label %137

137:                                              ; preds = %136, %43
  br label %138

138:                                              ; preds = %137, %34
  %139 = load i32, ptr %9, align 4
  call void @llvm.lifetime.end.p0(i64 4, ptr %9) #7
  ret i32 %139
}