; Function Attrs: nounwind uwtable
define hidden range(i32 1, 12) i32 @SDL_GetGamepadTypeFromVIDPID(i16 noundef zeroext %0, i16 noundef zeroext %1, ptr noundef %2, i1 noundef zeroext %3) local_unnamed_addr #1 {
  %5 = zext i16 %0 to i32
  %6 = zext i16 %1 to i32
  %7 = or i16 %1, %0
  %or.cond = icmp eq i16 %7, 0
  br i1 %or.cond, label %8, label %19

8:                                                ; preds = %4
  %.not48 = icmp eq ptr %2, null
  br i1 %.not48, label %52, label %9

9:                                                ; preds = %8
  %10 = tail call i32 @SDL_strcmp_REAL(ptr noundef nonnull %2, ptr noundef nonnull @.str.11) #13
  %11 = icmp eq i32 %10, 0
  br i1 %11, label %18, label %12

12:                                               ; preds = %9
  %13 = tail call i32 @SDL_strcmp_REAL(ptr noundef nonnull %2, ptr noundef nonnull @.str.12) #13
  %14 = icmp eq i32 %13, 0
  br i1 %14, label %18, label %15

15:                                               ; preds = %12
  %16 = tail call i32 @SDL_strcmp_REAL(ptr noundef nonnull %2, ptr noundef nonnull @.str.13) #13
  %17 = icmp eq i32 %16, 0
  br i1 %17, label %18, label %52

18:                                               ; preds = %15, %12, %9
  br label %52

19:                                               ; preds = %4
  %20 = icmp eq i16 %0, 1
  %21 = icmp eq i16 %1, 1
  %or.cond5 = and i1 %20, %21
  br i1 %or.cond5, label %52, label %22

22:                                               ; preds = %19
  %23 = icmp eq i16 %0, 1406
  %24 = icmp eq i16 %1, 8198
  %or.cond8 = and i1 %23, %24
  br i1 %or.cond8, label %52, label %25

25:                                               ; preds = %22
  %26 = icmp eq i16 %1, 8199
  %or.cond11 = and i1 %23, %26
  br i1 %or.cond11, label %27, label %31

27:                                               ; preds = %25
  %.not46 = icmp eq ptr %2, null
  br i1 %.not46, label %30, label %28

28:                                               ; preds = %27
  %29 = tail call ptr @SDL_strstr_REAL(ptr noundef nonnull %2, ptr noundef nonnull @.str.14) #13
  %.not47 = icmp eq ptr %29, null
  br i1 %.not47, label %30, label %52

30:                                               ; preds = %28, %27
  br label %52

31:                                               ; preds = %25
  %32 = icmp eq i16 %1, 8206
  %or.cond14 = and i1 %23, %32
  br i1 %or.cond14, label %33, label %37

33:                                               ; preds = %31
  %.not = icmp eq ptr %2, null
  br i1 %.not, label %36, label %34

34:                                               ; preds = %33
  %35 = tail call ptr @SDL_strstr_REAL(ptr noundef nonnull %2, ptr noundef nonnull @.str.15) #13
  %.not45 = icmp eq ptr %35, null
  br i1 %.not45, label %36, label %52

36:                                               ; preds = %34, %33
  br label %52

37:                                               ; preds = %31
  %38 = icmp eq i16 %1, 8200
  %or.cond17 = and i1 %23, %38
  br i1 %or.cond17, label %52, label %39

39:                                               ; preds = %37
  br i1 %3, label %40, label %42

40:                                               ; preds = %39
  %41 = tail call zeroext i1 @SDL_IsJoystickGameCube(i16 noundef zeroext %0, i16 noundef zeroext %1)
  br i1 %41, label %52, label %42

42:                                               ; preds = %40, %39
  %43 = tail call i32 @GuessControllerType(i32 noundef %5, i32 noundef %6) #13
  switch i32 %43, label %52 [
    i32 31, label %44
    i32 32, label %45
    i32 33, label %46
    i32 34, label %47
    i32 45, label %48
    i32 46, label %49
    i32 38, label %50
    i32 42, label %50
    i32 44, label %51
  ]

44:                                               ; preds = %42
  br label %52

45:                                               ; preds = %42
  br label %52

46:                                               ; preds = %42
  br label %52

47:                                               ; preds = %42
  br label %52

48:                                               ; preds = %42
  br label %52

49:                                               ; preds = %42
  %. = select i1 %3, i32 5, i32 1
  br label %52

50:                                               ; preds = %42, %42
  br label %52

51:                                               ; preds = %42
  %.49 = select i1 %3, i32 7, i32 1
  br label %52

52:                                               ; preds = %51, %49, %40, %37, %34, %28, %22, %19, %30, %44, %45, %46, %47, %48, %50, %42, %36, %8, %15, %18
  %.0 = phi i32 [ 7, %18 ], [ 1, %15 ], [ 1, %8 ], [ 9, %30 ], [ 9, %36 ], [ 1, %42 ], [ 7, %50 ], [ 6, %48 ], [ 5, %47 ], [ 4, %46 ], [ 3, %45 ], [ 2, %44 ], [ 1, %19 ], [ 8, %22 ], [ 1, %28 ], [ 8, %34 ], [ 10, %37 ], [ 11, %40 ], [ %., %49 ], [ %.49, %51 ]
  ret i32 %.0
}